; Function Attrs: nofree norecurse nosync nounwind memory(readwrite, inaccessiblemem: none) uwtable
define internal void @jpeg_difference5(ptr noundef readonly captures(none) %0, i32 noundef %1, ptr noundef readonly captures(none) %2, ptr noundef readonly captures(none) %3, ptr noundef writeonly captures(none) initializes((0, 4)) %4, i32 noundef %5) #4 {
  %7 = getelementptr inbounds nuw i8, ptr %0, i64 488
  %8 = load ptr, ptr %7, align 8, !tbaa !34
  %9 = load i8, ptr %3, align 1, !tbaa !29
  %10 = zext i8 %9 to i32
  %11 = load i8, ptr %2, align 1, !tbaa !29
  %12 = zext i8 %11 to i32
  %13 = sub nsw i32 %12, %10
  store i32 %13, ptr %4, align 4, !tbaa !43
  %14 = add i32 %5, -1
  %.not30 = icmp eq i32 %14, 0
  br i1 %.not30, label %._crit_edge, label %.lr.ph

.lr.ph:                                           ; preds = %6, %.lr.ph
  %15 = phi i32 [ %24, %.lr.ph ], [ %14, %6 ]
  %.pn2735 = phi ptr [ %.0, %.lr.ph ], [ %2, %6 ]
  %.02034 = phi i32 [ %17, %.lr.ph ], [ %10, %6 ]
  %.pn33 = phi ptr [ %.021, %.lr.ph ], [ %3, %6 ]
  %.02232 = phi i32 [ %19, %.lr.ph ], [ %12, %6 ]
  %.pn2831 = phi ptr [ %.023, %.lr.ph ], [ %4, %6 ]
  %.023 = getelementptr inbounds nuw i8, ptr %.pn2831, i64 4
  %.0 = getelementptr inbounds nuw i8, ptr %.pn2735, i64 1
  %.021 = getelementptr inbounds nuw i8, ptr %.pn33, i64 1
  %16 = load i8, ptr %.021, align 1, !tbaa !29
  %17 = zext i8 %16 to i32
  %18 = load i8, ptr %.0, align 1, !tbaa !29
  %19 = zext i8 %18 to i32
  %20 = sub nsw i32 %17, %.02034
  %21 = ashr i32 %20, 1
  %22 = add nsw i32 %.02232, %21
  %23 = sub nsw i32 %19, %22
  store i32 %23, ptr %.023, align 4, !tbaa !43
  %24 = add i32 %15, -1
  %.not = icmp eq i32 %24, 0
  br i1 %.not, label %._crit_edge, label %.lr.ph, !llvm.loop !54

._crit_edge:                                      ; preds = %.lr.ph, %6
  %25 = getelementptr inbounds nuw i8, ptr %0, i64 280
  %26 = load i32, ptr %25, align 8, !tbaa !40
  %.not26 = icmp eq i32 %26, 0
  br i1 %.not26, label %41, label %27

27:                                               ; preds = %._crit_edge
  %28 = getelementptr inbounds nuw i8, ptr %8, i64 104
  %29 = sext i32 %1 to i64
  %30 = getelementptr inbounds [10 x i32], ptr %28, i64 0, i64 %29
  %31 = load i32, ptr %30, align 4, !tbaa !43
  %32 = add i32 %31, -1
  store i32 %32, ptr %30, align 4, !tbaa !43
  %33 = icmp eq i32 %32, 0
  br i1 %33, label %34, label %41

34:                                               ; preds = %27
  %35 = load i32, ptr %25, align 8, !tbaa !40
  %36 = getelementptr inbounds nuw i8, ptr %0, i64 360
  %37 = load i32, ptr %36, align 8, !tbaa !41
  %38 = udiv i32 %35, %37
  store i32 %38, ptr %30, align 4, !tbaa !43
  %39 = getelementptr inbounds nuw i8, ptr %8, i64 24
  %40 = getelementptr inbounds [10 x ptr], ptr %39, i64 0, i64 %29
  store ptr @jpeg_difference_first_row, ptr %40, align 8, !tbaa !44
  br label %41

41:                                               ; preds = %27, %34, %._crit_edge
  ret void
}